; Function Attrs: nounwind uwtable
define dso_local noundef i32 @_ZThn88_N4node7UDPWrap8RecvStopEv(ptr noundef %this) unnamed_addr #12 align 2 {
entry:
  %state_.i.i = getelementptr inbounds i8, ptr %this, i64 -32
  %0 = load i32, ptr %state_.i.i, align 8
  %1 = add i32 %0, -1
  %spec.select.i.i = icmp ult i32 %1, 2
  br i1 %spec.select.i.i, label %_ZN4node7UDPWrap8RecvStopEv.exit, label %if.end.i

if.end.i:                                         ; preds = %entry
  %handle_.i = getelementptr inbounds i8, ptr %this, i64 32
  %call2.i = tail call i32 @uv_udp_recv_stop(ptr noundef nonnull %handle_.i) #19
  br label %_ZN4node7UDPWrap8RecvStopEv.exit

_ZN4node7UDPWrap8RecvStopEv.exit:                 ; preds = %entry, %if.end.i
  %retval.0.i = phi i32 [ %call2.i, %if.end.i ], [ -9, %entry ]
  ret i32 %retval.0.i
}